target datalayout = "e-m:e-p270:32:32-p271:32:32-p272:64:64-i64:64-i128:128-f80:128-n8:16:32:64-S128"
target triple = "x86_64-pc-linux-gnu"

%struct.HWContextType = type { i32, ptr, ptr, i64, i64, i64, ptr, ptr, ptr, ptr, ptr, ptr, ptr, ptr, ptr, ptr, ptr, ptr, ptr, ptr, ptr }
%struct.FFHWDeviceContext = type { %struct.AVHWDeviceContext, ptr, ptr }
%struct.AVHWDeviceContext = type { ptr, i32, ptr, ptr, ptr }

@hw_table = internal constant [3 x ptr] [ptr @ff_hwcontext_type_drm, ptr @ff_hwcontext_type_vaapi, ptr null], align 16
@hwdevice_ctx_class = internal constant { ptr, ptr, ptr, i32, i32, i32, i32, ptr, ptr, ptr, ptr, i32, [4 x i8] } { ptr @.str.21, ptr @hwdevice_ctx_get_name, ptr null, i32 3932772, i32 0, i32 0, i32 11, ptr null, ptr null, ptr null, ptr null, i32 0, [4 x i8] zeroinitializer }, align 8

; Function Attrs: nounwind uwtable
define ptr @av_hwdevice_ctx_alloc(i32 noundef %0) #0 {
  %2 = alloca ptr, align 8
  %3 = alloca i32, align 4
  %4 = alloca ptr, align 8
  %5 = alloca ptr, align 8
  %6 = alloca ptr, align 8
  %7 = alloca ptr, align 8
  %8 = alloca i32, align 4
  %9 = alloca i32, align 4
  store i32 %0, ptr %3, align 4, !tbaa !9
  call void @llvm.lifetime.start.p0(i64 8, ptr %4) #5
  call void @llvm.lifetime.start.p0(i64 8, ptr %5) #5
  call void @llvm.lifetime.start.p0(i64 8, ptr %6) #5
  call void @llvm.lifetime.start.p0(i64 8, ptr %7) #5
  store ptr null, ptr %7, align 8, !tbaa !13
  call void @llvm.lifetime.start.p0(i64 4, ptr %8) #5
  store i32 0, ptr %8, align 4, !tbaa !9
  br label %10

10:                                               ; preds = %31, %1
  %11 = load i32, ptr %8, align 4, !tbaa !9
  %12 = sext i32 %11 to i64
  %13 = getelementptr inbounds [3 x ptr], ptr @hw_table, i64 0, i64 %12
  %14 = load ptr, ptr %13, align 8, !tbaa !13
  %15 = icmp ne ptr %14, null
  br i1 %15, label %16, label %34

16:                                               ; preds = %10
  %17 = load i32, ptr %8, align 4, !tbaa !9
  %18 = sext i32 %17 to i64
  %19 = getelementptr inbounds [3 x ptr], ptr @hw_table, i64 0, i64 %18
  %20 = load ptr, ptr %19, align 8, !tbaa !13
  %21 = getelementptr inbounds nuw %struct.HWContextType, ptr %20, i32 0, i32 0
  %22 = load i32, ptr %21, align 8, !tbaa !15
  %23 = load i32, ptr %3, align 4, !tbaa !9
  %24 = icmp eq i32 %22, %23
  br i1 %24, label %25, label %30

25:                                               ; preds = %16
  %26 = load i32, ptr %8, align 4, !tbaa !9
  %27 = sext i32 %26 to i64
  %28 = getelementptr inbounds [3 x ptr], ptr @hw_table, i64 0, i64 %27
  %29 = load ptr, ptr %28, align 8, !tbaa !13
  store ptr %29, ptr %7, align 8, !tbaa !13
  br label %34

30:                                               ; preds = %16
  br label %31

31:                                               ; preds = %30
  %32 = load i32, ptr %8, align 4, !tbaa !9
  %33 = add nsw i32 %32, 1
  store i32 %33, ptr %8, align 4, !tbaa !9
  br label %10, !llvm.loop !19

34:                                               ; preds = %25, %10
  %35 = load ptr, ptr %7, align 8, !tbaa !13
  %36 = icmp ne ptr %35, null
  br i1 %36, label %38, label %37

37:                                               ; preds = %34
  store ptr null, ptr %2, align 8
  store i32 1, ptr %9, align 4
  br label %82

38:                                               ; preds = %34
  %39 = call noalias ptr @av_mallocz(i64 noundef 56)
  store ptr %39, ptr %4, align 8, !tbaa !20
  %40 = load ptr, ptr %4, align 8, !tbaa !20
  %41 = icmp ne ptr %40, null
  br i1 %41, label %43, label %42

42:                                               ; preds = %38
  store ptr null, ptr %2, align 8
  store i32 1, ptr %9, align 4
  br label %82

43:                                               ; preds = %38
  %44 = load ptr, ptr %4, align 8, !tbaa !20
  %45 = getelementptr inbounds nuw %struct.FFHWDeviceContext, ptr %44, i32 0, i32 0
  store ptr %45, ptr %5, align 8, !tbaa !22
  %46 = load ptr, ptr %7, align 8, !tbaa !13
  %47 = getelementptr inbounds nuw %struct.HWContextType, ptr %46, i32 0, i32 3
  %48 = load i64, ptr %47, align 8, !tbaa !24
  %49 = icmp ne i64 %48, 0
  br i1 %49, label %50, label %63

50:                                               ; preds = %43
  %51 = load ptr, ptr %7, align 8, !tbaa !13
  %52 = getelementptr inbounds nuw %struct.HWContextType, ptr %51, i32 0, i32 3
  %53 = load i64, ptr %52, align 8, !tbaa !24
  %54 = call noalias ptr @av_mallocz(i64 noundef %53)
  %55 = load ptr, ptr %5, align 8, !tbaa !22
  %56 = getelementptr inbounds nuw %struct.AVHWDeviceContext, ptr %55, i32 0, i32 2
  store ptr %54, ptr %56, align 8, !tbaa !25
  %57 = load ptr, ptr %5, align 8, !tbaa !22
  %58 = getelementptr inbounds nuw %struct.AVHWDeviceContext, ptr %57, i32 0, i32 2
  %59 = load ptr, ptr %58, align 8, !tbaa !25
  %60 = icmp ne ptr %59, null
  br i1 %60, label %62, label %61

61:                                               ; preds = %50
  br label %79

62:                                               ; preds = %50
  br label %63

63:                                               ; preds = %62, %43
  %64 = load ptr, ptr %5, align 8, !tbaa !22
  %65 = call ptr @av_buffer_create(ptr noundef %64, i64 noundef 40, ptr noundef @hwdevice_ctx_free, ptr noundef null, i32 noundef 1)
  store ptr %65, ptr %6, align 8, !tbaa !28
  %66 = load ptr, ptr %6, align 8, !tbaa !28
  %67 = icmp ne ptr %66, null
  br i1 %67, label %69, label %68

68:                                               ; preds = %63
  br label %79

69:                                               ; preds = %63
  %70 = load i32, ptr %3, align 4, !tbaa !9
  %71 = load ptr, ptr %5, align 8, !tbaa !22
  %72 = getelementptr inbounds nuw %struct.AVHWDeviceContext, ptr %71, i32 0, i32 1
  store i32 %70, ptr %72, align 8, !tbaa !30
  %73 = load ptr, ptr %5, align 8, !tbaa !22
  %74 = getelementptr inbounds nuw %struct.AVHWDeviceContext, ptr %73, i32 0, i32 0
  store ptr @hwdevice_ctx_class, ptr %74, align 8, !tbaa !31
  %75 = load ptr, ptr %7, align 8, !tbaa !13
  %76 = load ptr, ptr %4, align 8, !tbaa !20
  %77 = getelementptr inbounds nuw %struct.FFHWDeviceContext, ptr %76, i32 0, i32 1
  store ptr %75, ptr %77, align 8, !tbaa !32
  %78 = load ptr, ptr %6, align 8, !tbaa !28
  store ptr %78, ptr %2, align 8
  store i32 1, ptr %9, align 4
  br label %82

79:                                               ; preds = %68, %61
  %80 = load ptr, ptr %5, align 8, !tbaa !22
  %81 = getelementptr inbounds nuw %struct.AVHWDeviceContext, ptr %80, i32 0, i32 2
  call void @av_freep(ptr noundef %81)
  call void @av_freep(ptr noundef %5)
  store ptr null, ptr %2, align 8
  store i32 1, ptr %9, align 4
  br label %82

82:                                               ; preds = %79, %69, %42, %37
  call void @llvm.lifetime.end.p0(i64 4, ptr %8) #5
  call void @llvm.lifetime.end.p0(i64 8, ptr %7) #5
  call void @llvm.lifetime.end.p0(i64 8, ptr %6) #5
  call void @llvm.lifetime.end.p0(i64 8, ptr %5) #5
  call void @llvm.lifetime.end.p0(i64 8, ptr %4) #5
  %83 = load ptr, ptr %2, align 8
  ret ptr %83
}