; Function Attrs: nounwind uwtable
define ptr @av_hwdevice_ctx_alloc(i32 noundef %0) local_unnamed_addr #5 {
  %2 = alloca ptr, align 8
  call void @llvm.lifetime.start.p0(i64 8, ptr nonnull %2) #11
  br label %6

3:                                                ; preds = %6
  %indvars.iv.next = add nuw nsw i64 %indvars.iv, 1
  %4 = getelementptr inbounds nuw [3 x ptr], ptr @hw_table, i64 0, i64 %indvars.iv.next
  %5 = load ptr, ptr %4, align 8, !tbaa !15
  %.not = icmp eq i64 %indvars.iv.next, 2
  br i1 %.not, label %.thread, label %6, !llvm.loop !18

6:                                                ; preds = %1, %3
  %indvars.iv = phi i64 [ 0, %1 ], [ %indvars.iv.next, %3 ]
  %7 = phi ptr [ @ff_hwcontext_type_drm, %1 ], [ %5, %3 ]
  %8 = load i32, ptr %7, align 8, !tbaa !11
  %9 = icmp eq i32 %8, %0
  br i1 %9, label %10, label %3

10:                                               ; preds = %6
  %11 = tail call noalias ptr @av_mallocz(i64 noundef 56) #11
  %.not22 = icmp eq ptr %11, null
  br i1 %.not22, label %.thread, label %12

12:                                               ; preds = %10
  store ptr %11, ptr %2, align 8, !tbaa !19
  %13 = getelementptr inbounds nuw i8, ptr %7, i64 24
  %14 = load i64, ptr %13, align 8, !tbaa !21
  %.not23 = icmp eq i64 %14, 0
  br i1 %.not23, label %18, label %15

15:                                               ; preds = %12
  %16 = tail call noalias ptr @av_mallocz(i64 noundef %14) #11
  %17 = getelementptr inbounds nuw i8, ptr %11, i64 16
  store ptr %16, ptr %17, align 8, !tbaa !22
  %.not24 = icmp eq ptr %16, null
  br i1 %.not24, label %23, label %18

18:                                               ; preds = %15, %12
  %19 = tail call ptr @av_buffer_create(ptr noundef nonnull %11, i64 noundef 40, ptr noundef nonnull @hwdevice_ctx_free, ptr noundef null, i32 noundef 1) #11
  %.not25 = icmp eq ptr %19, null
  br i1 %.not25, label %23, label %20

20:                                               ; preds = %18
  %21 = getelementptr inbounds nuw i8, ptr %11, i64 8
  store i32 %0, ptr %21, align 8, !tbaa !25
  store ptr @hwdevice_ctx_class, ptr %11, align 8, !tbaa !26
  %22 = getelementptr inbounds nuw i8, ptr %11, i64 40
  store ptr %7, ptr %22, align 8, !tbaa !27
  br label %.thread

23:                                               ; preds = %18, %15
  %24 = getelementptr inbounds nuw i8, ptr %11, i64 16
  tail call void @av_freep(ptr noundef nonnull %24) #11
  call void @av_freep(ptr noundef nonnull %2) #11
  br label %.thread

.thread:                                          ; preds = %3, %10, %23, %20
  %.016 = phi ptr [ %19, %20 ], [ null, %23 ], [ null, %10 ], [ null, %3 ]
  call void @llvm.lifetime.end.p0(i64 8, ptr nonnull %2) #11
  ret ptr %.016
}